target datalayout = "e-m:e-p270:32:32-p271:32:32-p272:64:64-i64:64-i128:128-f80:128-n8:16:32:64-S128"
target triple = "x86_64-unknown-linux-gnu"

%"class.base::BasicStringPiece" = type { ptr, i64 }
%"class.base::internal::JSONParser::StringBuilder" = type { ptr, i64, ptr }

; Function Attrs: mustprogress uwtable
define dso_local { ptr, i64 } @_ZN4base8internal10JSONParser13StringBuilder13AsStringPieceB5cxx11Ev(ptr noundef nonnull align 8 dereferenceable(24) %this) #1 align 2 {
entry:
  %retval = alloca %"class.base::BasicStringPiece", align 8
  %this.addr = alloca ptr, align 8
  store ptr %this, ptr %this.addr, align 8
  %this1 = load ptr, ptr %this.addr, align 8
  %string_ = getelementptr inbounds %"class.base::internal::JSONParser::StringBuilder", ptr %this1, i32 0, i32 2
  %0 = load ptr, ptr %string_, align 8
  %tobool = icmp ne ptr %0, null
  br i1 %tobool, label %if.then, label %if.end

if.then:                                          ; preds = %entry
  call void @_ZN4base16BasicStringPieceINSt7__cxx1112basic_stringIcSt11char_traitsIcESaIcEEEEC1Ev(ptr noundef nonnull align 8 dereferenceable(16) %retval)
  br label %return

if.end:                                           ; preds = %entry
  %pos_ = getelementptr inbounds %"class.base::internal::JSONParser::StringBuilder", ptr %this1, i32 0, i32 0
  %1 = load ptr, ptr %pos_, align 8
  %length_ = getelementptr inbounds %"class.base::internal::JSONParser::StringBuilder", ptr %this1, i32 0, i32 1
  %2 = load i64, ptr %length_, align 8
  call void @_ZN4base16BasicStringPieceINSt7__cxx1112basic_stringIcSt11char_traitsIcESaIcEEEEC1EPKcm(ptr noundef nonnull align 8 dereferenceable(16) %retval, ptr noundef %1, i64 noundef %2)
  br label %return

return:                                           ; preds = %if.end, %if.then
  %3 = load { ptr, i64 }, ptr %retval, align 8
  ret { ptr, i64 } %3
}