; Function Attrs: mustprogress uwtable
define dso_local { ptr, i64 } @_ZN4base8internal10JSONParser13StringBuilder13AsStringPieceB5cxx11Ev(ptr nocapture noundef nonnull readonly align 8 dereferenceable(24) %this) local_unnamed_addr #2 align 2 {
entry:
  %retval = alloca %"class.base::BasicStringPiece", align 8
  %string_ = getelementptr inbounds i8, ptr %this, i64 16
  %0 = load ptr, ptr %string_, align 8
  %tobool.not = icmp eq ptr %0, null
  br i1 %tobool.not, label %if.end, label %if.then

if.then:                                          ; preds = %entry
  call void @_ZN4base16BasicStringPieceINSt7__cxx1112basic_stringIcSt11char_traitsIcESaIcEEEEC1Ev(ptr noundef nonnull align 8 dereferenceable(16) %retval)
  br label %return

if.end:                                           ; preds = %entry
  %1 = load ptr, ptr %this, align 8
  %length_ = getelementptr inbounds i8, ptr %this, i64 8
  %2 = load i64, ptr %length_, align 8
  call void @_ZN4base16BasicStringPieceINSt7__cxx1112basic_stringIcSt11char_traitsIcESaIcEEEEC1EPKcm(ptr noundef nonnull align 8 dereferenceable(16) %retval, ptr noundef %1, i64 noundef %2)
  br label %return

return:                                           ; preds = %if.end, %if.then
  %.fca.0.load = load ptr, ptr %retval, align 8
  %.fca.0.insert = insertvalue { ptr, i64 } poison, ptr %.fca.0.load, 0
  %.fca.1.gep = getelementptr inbounds i8, ptr %retval, i64 8
  %.fca.1.load = load i64, ptr %.fca.1.gep, align 8
  %.fca.1.insert = insertvalue { ptr, i64 } %.fca.0.insert, i64 %.fca.1.load, 1
  ret { ptr, i64 } %.fca.1.insert
}